target datalayout = "e-m:e-p270:32:32-p271:32:32-p272:64:64-i64:64-i128:128-f80:128-n8:16:32:64-S128"
target triple = "x86_64-pc-linux-gnu"

%struct.Vec_Ptr_t_ = type { i32, i32, ptr }
%struct.Vec_Int_t_ = type { i32, i32, ptr }
%struct.Aig_Man_t_ = type { ptr, ptr, ptr, ptr, ptr, ptr, ptr, %struct.Aig_Obj_t_, i32, i32, i32, i32, i32, i32, [7 x i32], i32, ptr, i32, ptr, i32, ptr, i32, i32, i32, ptr, i32, i32, i32, i32, i32, ptr, ptr, i32, ptr, ptr, i32, ptr, ptr, i32, i32, i32, ptr, ptr, ptr, ptr, ptr, ptr, ptr, ptr, ptr, ptr, ptr, ptr, ptr, ptr, i32, ptr, ptr, ptr, ptr, i32, i64, i64, i64, ptr, ptr }
%struct.Aig_Obj_t_ = type { %union.anon, ptr, ptr, i64, i32, i32, %union.anon.0 }
%union.anon = type { ptr }
%union.anon.0 = type { ptr }

; Function Attrs: inlinehint nounwind uwtable
define internal ptr @Vec_PtrAlloc(i32 noundef %0) #4 {
  %2 = alloca i32, align 4
  %3 = alloca ptr, align 8
  store i32 %0, ptr %2, align 4, !tbaa !3
  call void @llvm.lifetime.start.p0(i64 8, ptr %3) #11
  %4 = call noalias ptr @malloc(i64 noundef 16) #12
  store ptr %4, ptr %3, align 8, !tbaa !17
  %5 = load i32, ptr %2, align 4, !tbaa !3
  %6 = icmp sgt i32 %5, 0
  br i1 %6, label %7, label %11

7:                                                ; preds = %1
  %8 = load i32, ptr %2, align 4, !tbaa !3
  %9 = icmp slt i32 %8, 8
  br i1 %9, label %10, label %11

10:                                               ; preds = %7
  store i32 8, ptr %2, align 4, !tbaa !3
  br label %11

11:                                               ; preds = %10, %7, %1
  %12 = load ptr, ptr %3, align 8, !tbaa !17
  %13 = getelementptr inbounds nuw %struct.Vec_Ptr_t_, ptr %12, i32 0, i32 1
  store i32 0, ptr %13, align 4, !tbaa !18
  %14 = load i32, ptr %2, align 4, !tbaa !3
  %15 = load ptr, ptr %3, align 8, !tbaa !17
  %16 = getelementptr inbounds nuw %struct.Vec_Ptr_t_, ptr %15, i32 0, i32 0
  store i32 %14, ptr %16, align 8, !tbaa !20
  %17 = load ptr, ptr %3, align 8, !tbaa !17
  %18 = getelementptr inbounds nuw %struct.Vec_Ptr_t_, ptr %17, i32 0, i32 0
  %19 = load i32, ptr %18, align 8, !tbaa !20
  %20 = icmp ne i32 %19, 0
  br i1 %20, label %21, label %28

21:                                               ; preds = %11
  %22 = load ptr, ptr %3, align 8, !tbaa !17
  %23 = getelementptr inbounds nuw %struct.Vec_Ptr_t_, ptr %22, i32 0, i32 0
  %24 = load i32, ptr %23, align 8, !tbaa !20
  %25 = sext i32 %24 to i64
  %26 = mul i64 8, %25
  %27 = call noalias ptr @malloc(i64 noundef %26) #12
  br label %29

28:                                               ; preds = %11
  br label %29

29:                                               ; preds = %28, %21
  %30 = phi ptr [ %27, %21 ], [ null, %28 ]
  %31 = load ptr, ptr %3, align 8, !tbaa !17
  %32 = getelementptr inbounds nuw %struct.Vec_Ptr_t_, ptr %31, i32 0, i32 2
  store ptr %30, ptr %32, align 8, !tbaa !21
  %33 = load ptr, ptr %3, align 8, !tbaa !17
  call void @llvm.lifetime.end.p0(i64 8, ptr %3) #11
  ret ptr %33
}

; Function Attrs: inlinehint nounwind uwtable
define internal void @Vec_PtrFree(ptr noundef %0) #4 {
  %2 = alloca ptr, align 8
  store ptr %0, ptr %2, align 8, !tbaa !17
  %3 = load ptr, ptr %2, align 8, !tbaa !17
  %4 = getelementptr inbounds nuw %struct.Vec_Ptr_t_, ptr %3, i32 0, i32 2
  %5 = load ptr, ptr %4, align 8, !tbaa !21
  %6 = icmp ne ptr %5, null
  br i1 %6, label %7, label %13

7:                                                ; preds = %1
  %8 = load ptr, ptr %2, align 8, !tbaa !17
  %9 = getelementptr inbounds nuw %struct.Vec_Ptr_t_, ptr %8, i32 0, i32 2
  %10 = load ptr, ptr %9, align 8, !tbaa !21
  call void @free(ptr noundef %10) #11
  %11 = load ptr, ptr %2, align 8, !tbaa !17
  %12 = getelementptr inbounds nuw %struct.Vec_Ptr_t_, ptr %11, i32 0, i32 2
  store ptr null, ptr %12, align 8, !tbaa !21
  br label %14

13:                                               ; preds = %1
  br label %14

14:                                               ; preds = %13, %7
  %15 = load ptr, ptr %2, align 8, !tbaa !17
  %16 = icmp ne ptr %15, null
  br i1 %16, label %17, label %19

17:                                               ; preds = %14
  %18 = load ptr, ptr %2, align 8, !tbaa !17
  call void @free(ptr noundef %18) #11
  store ptr null, ptr %2, align 8, !tbaa !17
  br label %20

19:                                               ; preds = %14
  br label %20

20:                                               ; preds = %19, %17
  ret void
}

; Function Attrs: inlinehint nounwind uwtable
define internal void @Vec_PtrWriteEntry(ptr noundef %0, i32 noundef %1, ptr noundef %2) #4 {
  %4 = alloca ptr, align 8
  %5 = alloca i32, align 4
  %6 = alloca ptr, align 8
  store ptr %0, ptr %4, align 8, !tbaa !17
  store i32 %1, ptr %5, align 4, !tbaa !3
  store ptr %2, ptr %6, align 8, !tbaa !22
  %7 = load ptr, ptr %6, align 8, !tbaa !22
  %8 = load ptr, ptr %4, align 8, !tbaa !17
  %9 = getelementptr inbounds nuw %struct.Vec_Ptr_t_, ptr %8, i32 0, i32 2
  %10 = load ptr, ptr %9, align 8, !tbaa !21
  %11 = load i32, ptr %5, align 4, !tbaa !3
  %12 = sext i32 %11 to i64
  %13 = getelementptr inbounds ptr, ptr %10, i64 %12
  store ptr %7, ptr %13, align 8, !tbaa !22
  ret void
}

; Function Attrs: inlinehint nounwind uwtable
define internal void @Vec_IntShrink(ptr noundef %0, i32 noundef %1) #4 {
  %3 = alloca ptr, align 8
  %4 = alloca i32, align 4
  store ptr %0, ptr %3, align 8, !tbaa !40
  store i32 %1, ptr %4, align 4, !tbaa !3
  %5 = load i32, ptr %4, align 4, !tbaa !3
  %6 = load ptr, ptr %3, align 8, !tbaa !40
  %7 = getelementptr inbounds nuw %struct.Vec_Int_t_, ptr %6, i32 0, i32 1
  store i32 %5, ptr %7, align 4, !tbaa !43
  ret void
}

; Function Attrs: inlinehint nounwind uwtable
define internal void @Vec_IntWriteEntry(ptr noundef %0, i32 noundef %1, i32 noundef %2) #4 {
  %4 = alloca ptr, align 8
  %5 = alloca i32, align 4
  %6 = alloca i32, align 4
  store ptr %0, ptr %4, align 8, !tbaa !40
  store i32 %1, ptr %5, align 4, !tbaa !3
  store i32 %2, ptr %6, align 4, !tbaa !3
  %7 = load i32, ptr %6, align 4, !tbaa !3
  %8 = load ptr, ptr %4, align 8, !tbaa !40
  %9 = getelementptr inbounds nuw %struct.Vec_Int_t_, ptr %8, i32 0, i32 2
  %10 = load ptr, ptr %9, align 8, !tbaa !46
  %11 = load i32, ptr %5, align 4, !tbaa !3
  %12 = sext i32 %11 to i64
  %13 = getelementptr inbounds i32, ptr %10, i64 %12
  store i32 %7, ptr %13, align 4, !tbaa !3
  ret void
}

; Function Attrs: inlinehint nounwind uwtable
define internal i32 @Aig_ManCiNum(ptr noundef %0) #4 {
  %2 = alloca ptr, align 8
  store ptr %0, ptr %2, align 8, !tbaa !47
  %3 = load ptr, ptr %2, align 8, !tbaa !47
  %4 = getelementptr inbounds nuw %struct.Aig_Man_t_, ptr %3, i32 0, i32 14
  %5 = getelementptr inbounds [7 x i32], ptr %4, i64 0, i64 2
  %6 = load i32, ptr %5, align 8, !tbaa !3
  ret i32 %6
}

; Function Attrs: inlinehint nounwind uwtable
define internal i32 @Vec_IntEntry(ptr noundef %0, i32 noundef %1) #4 {
  %3 = alloca ptr, align 8
  %4 = alloca i32, align 4
  store ptr %0, ptr %3, align 8, !tbaa !40
  store i32 %1, ptr %4, align 4, !tbaa !3
  %5 = load ptr, ptr %3, align 8, !tbaa !40
  %6 = getelementptr inbounds nuw %struct.Vec_Int_t_, ptr %5, i32 0, i32 2
  %7 = load ptr, ptr %6, align 8, !tbaa !46
  %8 = load i32, ptr %4, align 4, !tbaa !3
  %9 = sext i32 %8 to i64
  %10 = getelementptr inbounds i32, ptr %7, i64 %9
  %11 = load i32, ptr %10, align 4, !tbaa !3
  ret i32 %11
}

; Function Attrs: inlinehint nounwind uwtable
define internal i32 @Vec_IntSize(ptr noundef %0) #4 {
  %2 = alloca ptr, align 8
  store ptr %0, ptr %2, align 8, !tbaa !40
  %3 = load ptr, ptr %2, align 8, !tbaa !40
  %4 = getelementptr inbounds nuw %struct.Vec_Int_t_, ptr %3, i32 0, i32 1
  %5 = load i32, ptr %4, align 4, !tbaa !43
  ret i32 %5
}

; Function Attrs: inlinehint nounwind uwtable
define internal void @Vec_IntFree(ptr noundef %0) #4 {
  %2 = alloca ptr, align 8
  store ptr %0, ptr %2, align 8, !tbaa !40
  %3 = load ptr, ptr %2, align 8, !tbaa !40
  %4 = getelementptr inbounds nuw %struct.Vec_Int_t_, ptr %3, i32 0, i32 2
  %5 = load ptr, ptr %4, align 8, !tbaa !46
  %6 = icmp ne ptr %5, null
  br i1 %6, label %7, label %13

7:                                                ; preds = %1
  %8 = load ptr, ptr %2, align 8, !tbaa !40
  %9 = getelementptr inbounds nuw %struct.Vec_Int_t_, ptr %8, i32 0, i32 2
  %10 = load ptr, ptr %9, align 8, !tbaa !46
  call void @free(ptr noundef %10) #11
  %11 = load ptr, ptr %2, align 8, !tbaa !40
  %12 = getelementptr inbounds nuw %struct.Vec_Int_t_, ptr %11, i32 0, i32 2
  store ptr null, ptr %12, align 8, !tbaa !46
  br label %14

13:                                               ; preds = %1
  br label %14

14:                                               ; preds = %13, %7
  %15 = load ptr, ptr %2, align 8, !tbaa !40
  %16 = icmp ne ptr %15, null
  br i1 %16, label %17, label %19

17:                                               ; preds = %14
  %18 = load ptr, ptr %2, align 8, !tbaa !40
  call void @free(ptr noundef %18) #11
  store ptr null, ptr %2, align 8, !tbaa !40
  br label %20

19:                                               ; preds = %14
  br label %20

20:                                               ; preds = %19, %17
  ret void
}

; Function Attrs: inlinehint nounwind uwtable
define internal i32 @Aig_ManCoNum(ptr noundef %0) #4 {
  %2 = alloca ptr, align 8
  store ptr %0, ptr %2, align 8, !tbaa !47
  %3 = load ptr, ptr %2, align 8, !tbaa !47
  %4 = getelementptr inbounds nuw %struct.Aig_Man_t_, ptr %3, i32 0, i32 14
  %5 = getelementptr inbounds [7 x i32], ptr %4, i64 0, i64 3
  %6 = load i32, ptr %5, align 4, !tbaa !3
  ret i32 %6
}

; Function Attrs: inlinehint nounwind uwtable
define internal i32 @Vec_IntPop(ptr noundef %0) #4 {
  %2 = alloca ptr, align 8
  store ptr %0, ptr %2, align 8, !tbaa !40
  %3 = load ptr, ptr %2, align 8, !tbaa !40
  %4 = getelementptr inbounds nuw %struct.Vec_Int_t_, ptr %3, i32 0, i32 2
  %5 = load ptr, ptr %4, align 8, !tbaa !46
  %6 = load ptr, ptr %2, align 8, !tbaa !40
  %7 = getelementptr inbounds nuw %struct.Vec_Int_t_, ptr %6, i32 0, i32 1
  %8 = load i32, ptr %7, align 4, !tbaa !43
  %9 = add nsw i32 %8, -1
  store i32 %9, ptr %7, align 4, !tbaa !43
  %10 = sext i32 %9 to i64
  %11 = getelementptr inbounds i32, ptr %5, i64 %10
  %12 = load i32, ptr %11, align 4, !tbaa !3
  ret i32 %12
}

; Function Attrs: inlinehint nounwind uwtable
define internal ptr @Vec_PtrEntry(ptr noundef %0, i32 noundef %1) #4 {
  %3 = alloca ptr, align 8
  %4 = alloca i32, align 4
  store ptr %0, ptr %3, align 8, !tbaa !17
  store i32 %1, ptr %4, align 4, !tbaa !3
  %5 = load ptr, ptr %3, align 8, !tbaa !17
  %6 = getelementptr inbounds nuw %struct.Vec_Ptr_t_, ptr %5, i32 0, i32 2
  %7 = load ptr, ptr %6, align 8, !tbaa !21
  %8 = load i32, ptr %4, align 4, !tbaa !3
  %9 = sext i32 %8 to i64
  %10 = getelementptr inbounds ptr, ptr %7, i64 %9
  %11 = load ptr, ptr %10, align 8, !tbaa !22
  ret ptr %11
}

; Function Attrs: inlinehint nounwind uwtable
define internal i32 @Vec_PtrSize(ptr noundef %0) #4 {
  %2 = alloca ptr, align 8
  store ptr %0, ptr %2, align 8, !tbaa !17
  %3 = load ptr, ptr %2, align 8, !tbaa !17
  %4 = getelementptr inbounds nuw %struct.Vec_Ptr_t_, ptr %3, i32 0, i32 1
  %5 = load i32, ptr %4, align 4, !tbaa !18
  ret i32 %5
}

; Function Attrs: inlinehint nounwind uwtable
define internal ptr @Vec_PtrStart(i32 noundef %0) #4 {
  %2 = alloca i32, align 4
  %3 = alloca ptr, align 8
  store i32 %0, ptr %2, align 4, !tbaa !3
  call void @llvm.lifetime.start.p0(i64 8, ptr %3) #11
  %4 = load i32, ptr %2, align 4, !tbaa !3
  %5 = call ptr @Vec_PtrAlloc(i32 noundef %4)
  store ptr %5, ptr %3, align 8, !tbaa !17
  %6 = load i32, ptr %2, align 4, !tbaa !3
  %7 = load ptr, ptr %3, align 8, !tbaa !17
  %8 = getelementptr inbounds nuw %struct.Vec_Ptr_t_, ptr %7, i32 0, i32 1
  store i32 %6, ptr %8, align 4, !tbaa !18
  %9 = load ptr, ptr %3, align 8, !tbaa !17
  %10 = getelementptr inbounds nuw %struct.Vec_Ptr_t_, ptr %9, i32 0, i32 2
  %11 = load ptr, ptr %10, align 8, !tbaa !21
  %12 = load i32, ptr %2, align 4, !tbaa !3
  %13 = sext i32 %12 to i64
  %14 = mul i64 8, %13
  call void @llvm.memset.p0.i64(ptr align 8 %11, i8 0, i64 %14, i1 false)
  %15 = load ptr, ptr %3, align 8, !tbaa !17
  call void @llvm.lifetime.end.p0(i64 8, ptr %3) #11
  ret ptr %15
}

; Function Attrs: inlinehint nounwind uwtable
define internal i32 @Aig_ManRegNum(ptr noundef %0) #4 {
  %2 = alloca ptr, align 8
  store ptr %0, ptr %2, align 8, !tbaa !47
  %3 = load ptr, ptr %2, align 8, !tbaa !47
  %4 = getelementptr inbounds nuw %struct.Aig_Man_t_, ptr %3, i32 0, i32 8
  %5 = load i32, ptr %4, align 8, !tbaa !80
  ret i32 %5
}

; Function Attrs: nounwind uwtable
define ptr @Aig_ManSupportsRegisters(ptr noundef %0) #0 {
  %2 = alloca ptr, align 8
  %3 = alloca ptr, align 8
  %4 = alloca ptr, align 8
  %5 = alloca ptr, align 8
  %6 = alloca i32, align 4
  %7 = alloca i32, align 4
  %8 = alloca i32, align 4
  %9 = alloca i32, align 4
  %10 = alloca i32, align 4
  store ptr %0, ptr %2, align 8, !tbaa !47
  call void @llvm.lifetime.start.p0(i64 8, ptr %3) #11
  call void @llvm.lifetime.start.p0(i64 8, ptr %4) #11
  call void @llvm.lifetime.start.p0(i64 8, ptr %5) #11
  call void @llvm.lifetime.start.p0(i64 4, ptr %6) #11
  call void @llvm.lifetime.start.p0(i64 4, ptr %7) #11
  call void @llvm.lifetime.start.p0(i64 4, ptr %8) #11
  call void @llvm.lifetime.start.p0(i64 4, ptr %9) #11
  call void @llvm.lifetime.start.p0(i64 4, ptr %10) #11
  %11 = load ptr, ptr %2, align 8, !tbaa !47
  %12 = call ptr @Aig_ManSupports(ptr noundef %11)
  store ptr %12, ptr %3, align 8, !tbaa !17
  %13 = load ptr, ptr %2, align 8, !tbaa !47
  %14 = call i32 @Aig_ManRegNum(ptr noundef %13)
  %15 = call ptr @Vec_PtrStart(i32 noundef %14)
  store ptr %15, ptr %4, align 8, !tbaa !17
  store i32 0, ptr %10, align 4, !tbaa !3
  br label %16

16:                                               ; preds = %78, %1
  %17 = load i32, ptr %10, align 4, !tbaa !3
  %18 = load ptr, ptr %3, align 8, !tbaa !17
  %19 = call i32 @Vec_PtrSize(ptr noundef %18)
  %20 = icmp slt i32 %17, %19
  br i1 %20, label %21, label %25

21:                                               ; preds = %16
  %22 = load ptr, ptr %3, align 8, !tbaa !17
  %23 = load i32, ptr %10, align 4, !tbaa !3
  %24 = call ptr @Vec_PtrEntry(ptr noundef %22, i32 noundef %23)
  store ptr %24, ptr %5, align 8, !tbaa !40
  br label %25

25:                                               ; preds = %21, %16
  %26 = phi i1 [ false, %16 ], [ true, %21 ]
  br i1 %26, label %27, label %81

27:                                               ; preds = %25
  %28 = load ptr, ptr %5, align 8, !tbaa !40
  %29 = call i32 @Vec_IntPop(ptr noundef %28)
  store i32 %29, ptr %6, align 4, !tbaa !3
  %30 = load ptr, ptr %2, align 8, !tbaa !47
  %31 = call i32 @Aig_ManCoNum(ptr noundef %30)
  %32 = load ptr, ptr %2, align 8, !tbaa !47
  %33 = call i32 @Aig_ManRegNum(ptr noundef %32)
  %34 = sub nsw i32 %31, %33
  %35 = load i32, ptr %6, align 4, !tbaa !3
  %36 = sub nsw i32 %35, %34
  store i32 %36, ptr %6, align 4, !tbaa !3
  %37 = load i32, ptr %6, align 4, !tbaa !3
  %38 = icmp slt i32 %37, 0
  br i1 %38, label %39, label %41

39:                                               ; preds = %27
  %40 = load ptr, ptr %5, align 8, !tbaa !40
  call void @Vec_IntFree(ptr noundef %40)
  br label %78

41:                                               ; preds = %27
  store i32 0, ptr %9, align 4, !tbaa !3
  store i32 0, ptr %8, align 4, !tbaa !3
  br label %42

42:                                               ; preds = %69, %41
  %43 = load i32, ptr %8, align 4, !tbaa !3
  %44 = load ptr, ptr %5, align 8, !tbaa !40
  %45 = call i32 @Vec_IntSize(ptr noundef %44)
  %46 = icmp slt i32 %43, %45
  br i1 %46, label %47, label %51

47:                                               ; preds = %42
  %48 = load ptr, ptr %5, align 8, !tbaa !40
  %49 = load i32, ptr %8, align 4, !tbaa !3
  %50 = call i32 @Vec_IntEntry(ptr noundef %48, i32 noundef %49)
  store i32 %50, ptr %7, align 4, !tbaa !3
  br label %51

51:                                               ; preds = %47, %42
  %52 = phi i1 [ false, %42 ], [ true, %47 ]
  br i1 %52, label %53, label %72

53:                                               ; preds = %51
  %54 = load ptr, ptr %2, align 8, !tbaa !47
  %55 = call i32 @Aig_ManCiNum(ptr noundef %54)
  %56 = load ptr, ptr %2, align 8, !tbaa !47
  %57 = call i32 @Aig_ManRegNum(ptr noundef %56)
  %58 = sub nsw i32 %55, %57
  %59 = load i32, ptr %7, align 4, !tbaa !3
  %60 = sub nsw i32 %59, %58
  store i32 %60, ptr %7, align 4, !tbaa !3
  %61 = load i32, ptr %7, align 4, !tbaa !3
  %62 = icmp slt i32 %61, 0
  br i1 %62, label %63, label %64

63:                                               ; preds = %53
  br label %69

64:                                               ; preds = %53
  %65 = load ptr, ptr %5, align 8, !tbaa !40
  %66 = load i32, ptr %9, align 4, !tbaa !3
  %67 = add nsw i32 %66, 1
  store i32 %67, ptr %9, align 4, !tbaa !3
  %68 = load i32, ptr %7, align 4, !tbaa !3
  call void @Vec_IntWriteEntry(ptr noundef %65, i32 noundef %66, i32 noundef %68)
  br label %69

69:                                               ; preds = %64, %63
  %70 = load i32, ptr %8, align 4, !tbaa !3
  %71 = add nsw i32 %70, 1
  store i32 %71, ptr %8, align 4, !tbaa !3
  br label %42, !llvm.loop !77

72:                                               ; preds = %51
  %73 = load ptr, ptr %5, align 8, !tbaa !40
  %74 = load i32, ptr %9, align 4, !tbaa !3
  call void @Vec_IntShrink(ptr noundef %73, i32 noundef %74)
  %75 = load ptr, ptr %4, align 8, !tbaa !17
  %76 = load i32, ptr %6, align 4, !tbaa !3
  %77 = load ptr, ptr %5, align 8, !tbaa !40
  call void @Vec_PtrWriteEntry(ptr noundef %75, i32 noundef %76, ptr noundef %77)
  br label %78

78:                                               ; preds = %72, %39
  %79 = load i32, ptr %10, align 4, !tbaa !3
  %80 = add nsw i32 %79, 1
  store i32 %80, ptr %10, align 4, !tbaa !3
  br label %16, !llvm.loop !78

81:                                               ; preds = %25
  %82 = load ptr, ptr %3, align 8, !tbaa !17
  call void @Vec_PtrFree(ptr noundef %82)
  store i32 0, ptr %10, align 4, !tbaa !3
  br label %83

83:                                               ; preds = %95, %81
  %84 = load i32, ptr %10, align 4, !tbaa !3
  %85 = load ptr, ptr %4, align 8, !tbaa !17
  %86 = call i32 @Vec_PtrSize(ptr noundef %85)
  %87 = icmp slt i32 %84, %86
  br i1 %87, label %88, label %92

88:                                               ; preds = %83
  %89 = load ptr, ptr %4, align 8, !tbaa !17
  %90 = load i32, ptr %10, align 4, !tbaa !3
  %91 = call ptr @Vec_PtrEntry(ptr noundef %89, i32 noundef %90)
  store ptr %91, ptr %5, align 8, !tbaa !40
  br label %92

92:                                               ; preds = %88, %83
  %93 = phi i1 [ false, %83 ], [ true, %88 ]
  br i1 %93, label %94, label %98

94:                                               ; preds = %92
  br label %95

95:                                               ; preds = %94
  %96 = load i32, ptr %10, align 4, !tbaa !3
  %97 = add nsw i32 %96, 1
  store i32 %97, ptr %10, align 4, !tbaa !3
  br label %83, !llvm.loop !79

98:                                               ; preds = %92
  %99 = load ptr, ptr %4, align 8, !tbaa !17
  call void @llvm.lifetime.end.p0(i64 4, ptr %10) #11
  call void @llvm.lifetime.end.p0(i64 4, ptr %9) #11
  call void @llvm.lifetime.end.p0(i64 4, ptr %8) #11
  call void @llvm.lifetime.end.p0(i64 4, ptr %7) #11
  call void @llvm.lifetime.end.p0(i64 4, ptr %6) #11
  call void @llvm.lifetime.end.p0(i64 8, ptr %5) #11
  call void @llvm.lifetime.end.p0(i64 8, ptr %4) #11
  call void @llvm.lifetime.end.p0(i64 8, ptr %3) #11
  ret ptr %99
}