; Function Attrs: nounwind uwtable
define noalias noundef ptr @Aig_ManSupportsRegisters(ptr noundef %0) local_unnamed_addr #4 {
  %2 = tail call ptr @Aig_ManSupports(ptr noundef %0)
  %3 = getelementptr i8, ptr %0, i64 104
  %.val54 = load i32, ptr %3, align 8, !tbaa !67
  %4 = tail call noalias dereferenceable_or_null(16) ptr @malloc(i64 noundef 16) #23
  %5 = add i32 %.val54, -1
  %or.cond.i.i = icmp ult i32 %5, 7
  %spec.store.select.i.i = select i1 %or.cond.i.i, i32 8, i32 %.val54
  store i32 %spec.store.select.i.i, ptr %4, align 8, !tbaa !14
  %.not.i.i = icmp eq i32 %spec.store.select.i.i, 0
  br i1 %.not.i.i, label %Vec_PtrStart.exit, label %6

6:                                                ; preds = %1
  %7 = sext i32 %spec.store.select.i.i to i64
  %8 = shl nsw i64 %7, 3
  %9 = tail call noalias ptr @malloc(i64 noundef %8) #23
  br label %Vec_PtrStart.exit

Vec_PtrStart.exit:                                ; preds = %1, %6
  %10 = phi ptr [ %9, %6 ], [ null, %1 ]
  %11 = getelementptr inbounds nuw i8, ptr %4, i64 4
  %12 = getelementptr inbounds nuw i8, ptr %4, i64 8
  store ptr %10, ptr %12, align 8, !tbaa !15
  store i32 %.val54, ptr %11, align 4, !tbaa !12
  %13 = sext i32 %.val54 to i64
  %14 = shl nsw i64 %13, 3
  tail call void @llvm.memset.p0.i64(ptr align 8 %10, i8 0, i64 %14, i1 false)
  %15 = getelementptr i8, ptr %2, i64 4
  %.val46 = load i32, ptr %15, align 4, !tbaa !12
  %16 = icmp sgt i32 %.val46, 0
  %17 = getelementptr i8, ptr %2, i64 8
  %.val48 = load ptr, ptr %17, align 8, !tbaa !15
  br i1 %16, label %.lr.ph63, label %.critedge

.lr.ph63:                                         ; preds = %Vec_PtrStart.exit
  %18 = getelementptr i8, ptr %0, i64 140
  %19 = getelementptr i8, ptr %0, i64 136
  %wide.trip.count = zext nneg i32 %.val46 to i64
  br label %20

20:                                               ; preds = %.lr.ph63, %47
  %indvars.iv65 = phi i64 [ 0, %.lr.ph63 ], [ %indvars.iv.next66, %47 ]
  %21 = getelementptr inbounds nuw ptr, ptr %.val48, i64 %indvars.iv65
  %22 = load ptr, ptr %21, align 8, !tbaa !18
  %23 = getelementptr inbounds nuw i8, ptr %22, i64 8
  %24 = load ptr, ptr %23, align 8, !tbaa !37
  %25 = getelementptr inbounds nuw i8, ptr %22, i64 4
  %26 = load i32, ptr %25, align 4, !tbaa !33
  %27 = add nsw i32 %26, -1
  store i32 %27, ptr %25, align 4, !tbaa !33
  %28 = sext i32 %27 to i64
  %29 = getelementptr inbounds i32, ptr %24, i64 %28
  %30 = load i32, ptr %29, align 4, !tbaa !29
  %.val50 = load i32, ptr %18, align 4, !tbaa !29
  %.val55 = load i32, ptr %3, align 8, !tbaa !67
  %.neg = sub i32 %.val55, %.val50
  %31 = add i32 %.neg, %30
  %32 = icmp slt i32 %31, 0
  br i1 %32, label %Vec_IntFree.exit, label %.preheader

.preheader:                                       ; preds = %20
  %33 = icmp sgt i32 %26, 1
  br i1 %33, label %.lr.ph, label %.critedge2

Vec_IntFree.exit:                                 ; preds = %20
  tail call void @free(ptr noundef nonnull %24) #24
  tail call void @free(ptr noundef nonnull %22) #24
  br label %47

.lr.ph:                                           ; preds = %.preheader, %42
  %.val5268 = phi i32 [ %.val52, %42 ], [ %27, %.preheader ]
  %indvars.iv = phi i64 [ %indvars.iv.next, %42 ], [ 0, %.preheader ]
  %.04061 = phi i32 [ %.141, %42 ], [ 0, %.preheader ]
  %34 = getelementptr inbounds nuw i32, ptr %24, i64 %indvars.iv
  %35 = load i32, ptr %34, align 4, !tbaa !29
  %.val51 = load i32, ptr %19, align 8, !tbaa !29
  %.val56 = load i32, ptr %3, align 8, !tbaa !67
  %.neg45 = sub i32 %.val56, %.val51
  %36 = add i32 %.neg45, %35
  %37 = icmp slt i32 %36, 0
  br i1 %37, label %42, label %38

38:                                               ; preds = %.lr.ph
  %39 = add nsw i32 %.04061, 1
  %40 = sext i32 %.04061 to i64
  %41 = getelementptr inbounds i32, ptr %24, i64 %40
  store i32 %36, ptr %41, align 4, !tbaa !29
  %.val52.pre = load i32, ptr %25, align 4, !tbaa !33
  br label %42

42:                                               ; preds = %.lr.ph, %38
  %.val52 = phi i32 [ %.val5268, %.lr.ph ], [ %.val52.pre, %38 ]
  %.141 = phi i32 [ %.04061, %.lr.ph ], [ %39, %38 ]
  %indvars.iv.next = add nuw nsw i64 %indvars.iv, 1
  %43 = sext i32 %.val52 to i64
  %44 = icmp slt i64 %indvars.iv.next, %43
  br i1 %44, label %.lr.ph, label %.critedge2, !llvm.loop !68

.critedge2:                                       ; preds = %42, %.preheader
  %.040.lcssa = phi i32 [ 0, %.preheader ], [ %.141, %42 ]
  store i32 %.040.lcssa, ptr %25, align 4, !tbaa !33
  %45 = zext nneg i32 %31 to i64
  %46 = getelementptr inbounds nuw ptr, ptr %10, i64 %45
  store ptr %22, ptr %46, align 8, !tbaa !18
  br label %47

47:                                               ; preds = %.critedge2, %Vec_IntFree.exit
  %indvars.iv.next66 = add nuw nsw i64 %indvars.iv65, 1
  %exitcond.not = icmp eq i64 %indvars.iv.next66, %wide.trip.count
  br i1 %exitcond.not, label %.critedge, label %20, !llvm.loop !69

.critedge:                                        ; preds = %47, %Vec_PtrStart.exit
  %.not.i58 = icmp eq ptr %.val48, null
  br i1 %.not.i58, label %Vec_PtrFree.exit, label %48

48:                                               ; preds = %.critedge
  tail call void @free(ptr noundef nonnull %.val48) #24
  br label %Vec_PtrFree.exit

Vec_PtrFree.exit:                                 ; preds = %.critedge, %48
  tail call void @free(ptr noundef nonnull %2) #24
  ret ptr %4
}